; Function Attrs: nounwind uwtable
define zeroext range(i8 0, 2) i8 @l_Int_Linear_le__of__le__diseq__cert(ptr noundef %0, ptr noundef %1, ptr noundef %2) local_unnamed_addr #1 {
  %4 = tail call zeroext i8 @l_Int_Linear_beqPoly____x40_Init_Data_Int_Linear___hyg_596_(ptr noundef %1, ptr noundef %0)
  %5 = icmp eq i8 %4, 0
  br i1 %5, label %6, label %67

6:                                                ; preds = %3
  %7 = load ptr, ptr @l_Int_Linear_norm__eq__var__cert___closed__1, align 8, !tbaa !11
  %8 = ptrtoint ptr %0 to i64
  %9 = and i64 %8, 1
  %.not35 = icmp eq i64 %9, 0
  br i1 %.not35, label %10, label %lean_inc.exit

10:                                               ; preds = %6
  %.val.i = load i32, ptr %0, align 4, !tbaa !6
  %11 = icmp sgt i32 %.val.i, 0
  br i1 %11, label %12, label %14, !prof !5

12:                                               ; preds = %10
  %13 = add nuw i32 %.val.i, 1
  store i32 %13, ptr %0, align 4, !tbaa !6
  br label %lean_inc.exit

14:                                               ; preds = %10
  %.not.i33 = icmp eq i32 %.val.i, 0
  br i1 %.not.i33, label %lean_inc.exit, label %15

15:                                               ; preds = %14
  tail call void @lean_inc_ref_cold(ptr noundef nonnull %0) #5
  br label %lean_inc.exit

lean_inc.exit:                                    ; preds = %15, %14, %12, %6
  %16 = load ptr, ptr @l_Int_Linear_instInhabitedExpr___closed__1, align 8, !tbaa !11
  %17 = ptrtoint ptr %7 to i64
  %18 = ptrtoint ptr %16 to i64
  %19 = and i64 %17, 1
  %20 = and i64 %19, %18
  %or.cond.not.i.i.i = icmp eq i64 %20, 0
  br i1 %or.cond.not.i.i.i, label %lean_int_dec_eq.exit.i, label %21, !prof !13

21:                                               ; preds = %lean_inc.exit
  %22 = icmp eq ptr %7, %16
  br i1 %22, label %26, label %24

lean_int_dec_eq.exit.i:                           ; preds = %lean_inc.exit
  %23 = tail call zeroext i1 @lean_int_big_eq(ptr noundef %7, ptr noundef %16) #5
  br i1 %23, label %26, label %24

24:                                               ; preds = %lean_int_dec_eq.exit.i, %21
  %25 = tail call ptr @l_Int_Linear_Poly_mul_x27(ptr noundef %0, ptr noundef %7)
  br label %l_Int_Linear_Poly_mul.exit

26:                                               ; preds = %lean_int_dec_eq.exit.i, %21
  br i1 %.not35, label %27, label %lean_dec.exit.i

27:                                               ; preds = %26
  %28 = load i32, ptr %0, align 4, !tbaa !6
  %29 = icmp sgt i32 %28, 1
  br i1 %29, label %30, label %32, !prof !5

30:                                               ; preds = %27
  %31 = add nsw i32 %28, -1
  store i32 %31, ptr %0, align 4, !tbaa !6
  br label %lean_dec.exit.i

32:                                               ; preds = %27
  %.not.i.i = icmp eq i32 %28, 0
  br i1 %.not.i.i, label %lean_dec.exit.i, label %33

33:                                               ; preds = %32
  tail call void @lean_dec_ref_cold(ptr noundef nonnull %0) #5
  br label %lean_dec.exit.i

lean_dec.exit.i:                                  ; preds = %33, %32, %30, %26
  %34 = load ptr, ptr @l_Int_Linear_Expr_toPoly_x27___closed__1, align 8, !tbaa !11
  br label %l_Int_Linear_Poly_mul.exit

l_Int_Linear_Poly_mul.exit:                       ; preds = %24, %lean_dec.exit.i
  %.0.i = phi ptr [ %25, %24 ], [ %34, %lean_dec.exit.i ]
  %35 = tail call zeroext i8 @l_Int_Linear_beqPoly____x40_Init_Data_Int_Linear___hyg_596_(ptr noundef %1, ptr noundef %.0.i)
  %36 = ptrtoint ptr %.0.i to i64
  %37 = and i64 %36, 1
  %.not36 = icmp eq i64 %37, 0
  br i1 %.not36, label %38, label %lean_dec.exit26

38:                                               ; preds = %l_Int_Linear_Poly_mul.exit
  %39 = load i32, ptr %.0.i, align 4, !tbaa !6
  %40 = icmp sgt i32 %39, 1
  br i1 %40, label %41, label %43, !prof !5

41:                                               ; preds = %38
  %42 = add nsw i32 %39, -1
  store i32 %42, ptr %.0.i, align 4, !tbaa !6
  br label %lean_dec.exit26

43:                                               ; preds = %38
  %.not.i = icmp eq i32 %39, 0
  br i1 %.not.i, label %lean_dec.exit26, label %44

44:                                               ; preds = %43
  tail call void @lean_dec_ref_cold(ptr noundef nonnull %.0.i) #5
  br label %lean_dec.exit26

lean_dec.exit26:                                  ; preds = %44, %43, %41, %l_Int_Linear_Poly_mul.exit
  %45 = icmp eq i8 %35, 0
  br i1 %45, label %46, label %54

46:                                               ; preds = %lean_dec.exit26
  br i1 %.not35, label %47, label %lean_dec.exit25

47:                                               ; preds = %46
  %48 = load i32, ptr %0, align 4, !tbaa !6
  %49 = icmp sgt i32 %48, 1
  br i1 %49, label %50, label %52, !prof !5

50:                                               ; preds = %47
  %51 = add nsw i32 %48, -1
  store i32 %51, ptr %0, align 4, !tbaa !6
  br label %lean_dec.exit25

52:                                               ; preds = %47
  %.not.i27 = icmp eq i32 %48, 0
  br i1 %.not.i27, label %lean_dec.exit25, label %53

53:                                               ; preds = %52
  tail call void @lean_dec_ref_cold(ptr noundef nonnull %0) #5
  br label %lean_dec.exit25

54:                                               ; preds = %lean_dec.exit26
  %55 = load ptr, ptr @l_Int_Linear_Poly_denote_x27_go___closed__1, align 8, !tbaa !11
  %56 = tail call ptr @l_Int_Linear_Poly_addConst(ptr noundef %0, ptr noundef %55)
  %57 = tail call zeroext i8 @l_Int_Linear_beqPoly____x40_Init_Data_Int_Linear___hyg_596_(ptr noundef %2, ptr noundef %56)
  %58 = ptrtoint ptr %56 to i64
  %59 = and i64 %58, 1
  %.not37 = icmp eq i64 %59, 0
  br i1 %.not37, label %60, label %lean_dec.exit25

60:                                               ; preds = %54
  %61 = load i32, ptr %56, align 4, !tbaa !6
  %62 = icmp sgt i32 %61, 1
  br i1 %62, label %63, label %65, !prof !5

63:                                               ; preds = %60
  %64 = add nsw i32 %61, -1
  store i32 %64, ptr %56, align 4, !tbaa !6
  br label %lean_dec.exit25

65:                                               ; preds = %60
  %.not.i29 = icmp eq i32 %61, 0
  br i1 %.not.i29, label %lean_dec.exit25, label %66

66:                                               ; preds = %65
  tail call void @lean_dec_ref_cold(ptr noundef nonnull %56) #5
  br label %lean_dec.exit25

67:                                               ; preds = %3
  %68 = load ptr, ptr @l_Int_Linear_Poly_denote_x27_go___closed__1, align 8, !tbaa !11
  %69 = tail call ptr @l_Int_Linear_Poly_addConst(ptr noundef %0, ptr noundef %68)
  %70 = tail call zeroext i8 @l_Int_Linear_beqPoly____x40_Init_Data_Int_Linear___hyg_596_(ptr noundef %2, ptr noundef %69)
  %71 = ptrtoint ptr %69 to i64
  %72 = and i64 %71, 1
  %.not = icmp eq i64 %72, 0
  br i1 %.not, label %73, label %lean_dec.exit25

73:                                               ; preds = %67
  %74 = load i32, ptr %69, align 4, !tbaa !6
  %75 = icmp sgt i32 %74, 1
  br i1 %75, label %76, label %78, !prof !5

76:                                               ; preds = %73
  %77 = add nsw i32 %74, -1
  store i32 %77, ptr %69, align 4, !tbaa !6
  br label %lean_dec.exit25

78:                                               ; preds = %73
  %.not.i31 = icmp eq i32 %74, 0
  br i1 %.not.i31, label %lean_dec.exit25, label %79

79:                                               ; preds = %78
  tail call void @lean_dec_ref_cold(ptr noundef nonnull %69) #5
  br label %lean_dec.exit25

lean_dec.exit25:                                  ; preds = %67, %76, %78, %79, %54, %63, %65, %66, %46, %50, %52, %53
  %.1 = phi i8 [ 0, %53 ], [ 0, %52 ], [ 0, %50 ], [ 0, %46 ], [ %57, %66 ], [ %57, %65 ], [ %57, %63 ], [ %57, %54 ], [ %70, %79 ], [ %70, %78 ], [ %70, %76 ], [ %70, %67 ]
  ret i8 %.1
}